(dp0
I0
V\u7684
p1
sI1
V\u4e00
p2
sI2
V\u662f
p3
sI3
V\u4e0d
p4
sI4
V\u5728
p5
sI5
V\u6709
p6
sI6
V\u4eba
p7
sI7
V\u4e86
p8
sI8
V\u4e2d
p9
sI9
V\u56fd
p10
sI10
V\u5927
p11
sI11
V\u4e3a
p12
sI12
V\u4e0a
p13
sI13
V\u8fd9
p14
sI14
V\u4e2a
p15
sI15
V\u4ee5
p16
sI16
V\u5e74
p17
sI17
V\u751f
p18
sI18
V\u548c
p19
sI19
V\u6211
p20
sI20
V\u65f6
p21
sI21
V\u4e4b
p22
sI22
V\u4e5f
p23
sI23
V\u6765
p24
sI24
V\u5230
p25
sI25
V\u8981
p26
sI26
V\u4f1a
p27
sI27
V\u5b66
p28
sI28
V\u5bf9
p29
sI29
V\u4e1a
p30
sI30
V\u51fa
p31
sI31
V\u884c
p32
sI32
V\u516c
p33
sI33
V\u80fd
p34
sI34
V\u4ed6
p35
sI35
V\u4e8e
p36
sI36
V\u800c
p37
sI37
V\u53d1
p38
sI38
V\u5730
p39
sI39
V\u53ef
p40
sI40
V\u4f5c
p41
sI41
V\u5c31
p42
sI42
V\u81ea
p43
sI43
V\u4eec
p44
sI44
V\u540e
p45
sI45
V\u6210
p46
sI46
V\u5bb6
p47
sI47
V\u65e5
p48
sI48
V\u8005
p49
sI49
V\u5206
p50
sI50
V\u591a
p51
sI51
V\u4e0b
p52
sI52
V\u5176
p53
sI53
V\u7528
p54
sI54
V\u65b9
p55
sI55
V\u672c
p56
sI56
V\u5f97
p57
sI57
V\u5b50
p58
sI58
V\u9ad8
p59
sI59
V\u8fc7
p60
sI60
V\u7ecf
p61
sI61
V\u73b0
p62
sI62
V\u8bf4
p63
sI63
V\u4e0e
p64
sI64
V\u524d
p65
sI65
V\u7406
p66
sI66
V\u5de5
p67
sI67
V\u6240
p68
sI68
V\u529b
p69
sI69
V\u5982
p70
sI70
V\u5c06
p71
sI71
V\u519b
p72
sI72
V\u90e8
p73
sI73
V\u4e8b
p74
sI74
V\u8fdb
p75
sI75
V\u53f8
p76
sI76
V\u573a
p77
sI77
V\u540c
p78
sI78
V\u673a
p79
sI79
V\u4e3b
p80
sI80
V\u90fd
p81
sI81
V\u5b9e
p82
sI82
V\u5929
p83
sI83
V\u9762
p84
sI84
V\u5e02
p85
sI85
V\u65b0
p86
sI86
V\u52a8
p87
sI87
V\u5f00
p88
sI88
V\u5173
p89
sI89
V\u5b9a
p90
sI90
V\u8fd8
p91
sI91
V\u957f
p92
sI92
V\u6b64
p93
sI93
V\u6708
p94
sI94
V\u9053
p95
sI95
V\u7f8e
p96
sI96
V\u5fc3
p97
sI97
V\u6cd5
p98
sI98
V\u6700
p99
sI99
V\u6587
p100
sI100
V\u7b49
p101
sI101
V\u5f53
p102
sI102
V\u7b2c
p103
sI103
V\u597d
p104
sI104
V\u7136
p105
sI105
V\u4f53
p106
sI106
V\u5168
p107
sI107
V\u6bd4
p108
sI108
V\u80a1
p109
sI109
V\u901a
p110
sI110
V\u6027
p111
sI111
V\u91cd
p112
sI112
V\u4e09
p113
sI113
V\u5916
p114
sI114
V\u4f46
p115
sI115
V\u6218
p116
sI116
V\u76f8
p117
sI117
V\u4ece
p118
sI118
V\u4f60
p119
sI119
V\u5185
p120
sI120
V\u65e0
p121
sI121
V\u8003
p122
sI122
V\u56e0
p123
sI123
V\u5c0f
p124
sI124
V\u8d44
p125
sI125
V\u79cd
p126
sI126
V\u5408
p127
sI127
V\u60c5
p128
sI128
V\u53bb
p129
sI129
V\u91cc
p130
sI130
V\u5316
p131
sI131
V\u6b21
p132
sI132
V\u5165
p133
sI133
V\u52a0
p134
sI134
V\u95f4
p135
sI135
V\u4e9b
p136
sI136
V\u5ea6
p137
sI137
V\u5458
p138
sI138
V\u610f
p139
sI139
V\u6ca1
p140
sI140
V\u4ea7
p141
sI141
V\u6b63
p142
sI142
V\u8868
p143
sI143
V\u5f88
p144
sI144
V\u961f
p145
sI145
V\u62a5
p146
sI146
V\u5df2
p147
sI147
V\u540d
p148
sI148
V\u6d77
p149
sI149
V\u70b9
p150
sI150
V\u76ee
p151
sI151
V\u7740
p152
sI152
V\u5e94
p153
sI153
V\u89e3
p154
sI154
V\u90a3
p155
sI155
V\u770b
p156
sI156
V\u6570
p157
sI157
V\u4e1c
p158
sI158
V\u4f4d
p159
sI159
V\u9898
p160
sI160
V\u5229
p161
sI161
V\u8d77
p162
sI162
V\u4e8c
p163
sI163
V\u6c11
p164
sI164
V\u63d0
p165
sI165
V\u53ca
p166
sI166
V\u660e
p167
sI167
V\u6559
p168
sI168
V\u95ee
p169
sI169
V\u5236
p170
sI170
V\u671f
p171
sI171
V\u5143
p172
sI172
V\u6e38
p173
sI173
V\u5973
p174
sI174
V\u5e76
p175
sI175
V\u66f0
p176
sI176
V\u5341
p177
sI177
V\u679c
p178
sI178
V\u4e48
p179
sI179
V\u6ce8
p180
sI180
V\u4e24
p181
sI181
V\u4e13
p182
sI182
V\u6837
p183
sI183
V\u4fe1
p184
sI184
V\u738b
p185
sI185
V\u5e73
p186
sI186
V\u5df1
p187
sI187
V\u91d1
p188
sI188
V\u52a1
p189
sI189
V\u4f7f
p190
sI190
V\u7535
p191
sI191
V\u7f51
p192
sI192
V\u4ee3
p193
sI193
V\u624b
p194
sI194
V\u77e5
p195
sI195
V\u8ba1
p196
sI196
V\u81f3
p197
sI197
V\u5e38
p198
sI198
V\u53ea
p199
sI199
V\u5c55
p200
sI200
V\u54c1
p201
sI201
V\u66f4
p202
sI202
V\u7cfb
p203
sI203
V\u79d1
p204
sI204
V\u95e8
p205
sI205
V\u7279
p206
sI206
V\u60f3
p207
sI207
V\u897f
p208
sI208
V\u6c34
p209
sI209
V\u505a
p210
sI210
V\u88ab
p211
sI211
V\u5317
p212
sI212
V\u7531
p213
sI213
V\u4e07
p214
sI214
V\u8001
p215
sI215
V\u5411
p216
sI216
V\u8bb0
p217
sI217
V\u653f
p218
sI218
V\u4eca
p219
sI219
V\u636e
p220
sI220
V\u91cf
p221
sI221
V\u4fdd
p222
sI222
V\u5efa
p223
sI223
V\u7269
p224
sI224
V\u533a
p225
sI225
V\u7ba1
p226
sI226
V\u89c1
p227
sI227
V\u5b89
p228
sI228
V\u96c6
p229
sI229
V\u6216
p230
sI230
V\u8ba4
p231
sI231
V\u7a0b
p232
sI232
V\u603b
p233
sI233
V\u5c11
p234
sI234
V\u8eab
p235
sI235
V\u5148
p236
sI236
V\u5e08
p237
sI237
V\u7403
p238
sI238
V\u4ef7
p239
sI239
V\u7a7a
p240
sI240
V\u65c5
p241
sI241
V\u53c8
p242
sI242
V\u6c42
p243
sI243
V\u6821
p244
sI244
V\u5f3a
p245
sI245
V\u5404
p246
sI246
V\u975e
p247
sI247
V\u7acb
p248
sI248
V\u53d7
p249
sI249
V\u672f
p250
sI250
V\u57fa
p251
sI251
V\u6d3b
p252
sI252
V\u53cd
p253
sI253
V\u4e16
p254
sI254
V\u4f55
p255
sI255
V\u804c
p256
sI256
V\u5bfc
p257
sI257
V\u4efb
p258
sI258
V\u53d6
p259
sI259
V\u5f0f
p260
sI260
V\u8bd5
p261
sI261
V\u624d
p262
sI262
V\u7ed3
p263
sI263
V\u8d39
p264
sI264
V\u628a
p265
sI265
V\u6536
p266
sI266
V\u8054
p267
sI267
V\u76f4
p268
sI268
V\u89c4
p269
sI269
V\u6301
p270
sI270
V\u8d5b
p271
sI271
V\u793e
p272
sI272
V\u56db
p273
sI273
V\u5c71
p274
sI274
V\u7edf
p275
sI275
V\u6295
p276
sI276
V\u5357
p277
sI277
V\u539f
p278
sI278
V\u8be5
p279
sI279
V\u9662
p280
sI280
V\u4ea4
p281
sI281
V\u8fbe
p282
sI282
V\u63a5
p283
sI283
V\u5934
p284
sI284
V\u6253
p285
sI285
V\u8bbe
p286
sI286
V\u6bcf
p287
sI287
V\u522b
p288
sI288
V\u793a
p289
sI289
V\u5219
p290
sI290
V\u8c03
p291
sI291
V\u5904
p292
sI292
V\u4e49
p293
sI293
V\u6743
p294
sI294
V\u53f0
p295
sI295
V\u611f
p296
sI296
V\u65af
p297
sI297
V\u8bc1
p298
sI298
V\u8a00
p299
sI299
V\u4e94
p300
sI300
V\u8bae
p301
sI301
V\u7ed9
p302
sI302
V\u51b3
p303
sI303
V\u8bba
p304
sI304
V\u5979
p305
sI305
V\u544a
p306
sI306
V\u5e7f
p307
sI307
V\u4f01
p308
sI308
V\u683c
p309
sI309
V\u589e
p310
sI310
V\u8ba9
p311
sI311
V\u6307
p312
sI312
V\u7814
p313
sI313
V\u5546
p314
sI314
V\u5ba2
p315
sI315
V\u592a
p316
sI316
V\u606f
p317
sI317
V\u8fd1
p318
sI318
V\u57ce
p319
sI319
V\u53d8
p320
sI320
V\u6280
p321
sI321
V\u533b
p322
sI322
V\u4ef6
p323
sI323
V\u51e0
p324
sI324
V\u4e66
p325
sI325
V\u9009
p326
sI326
V\u5468
p327
sI327
V\u5907
p328
sI328
V\u6d41
p329
sI329
V\u58eb
p330
sI330
V\u4eac
p331
sI331
V\u4f20
p332
sI332
V\u653e
p333
sI333
V\u75c5
p334
sI334
V\u534e
p335
sI335
V\u5355
p336
sI336
V\u8bdd
p337
sI337
V\u62db
p338
sI338
V\u8def
p339
sI339
V\u754c
p340
sI340
V\u836f
p341
sI341
V\u56de
p342
sI342
V\u518d
p343
sI343
V\u670d
p344
sI344
V\u4ec0
p345
sI345
V\u6539
p346
sI346
V\u80b2
p347
sI347
V\u53e3
p348
sI348
V\u5f20
p349
sI349
V\u9700
p350
sI350
V\u6cbb
p351
sI351
V\u5fb7
p352
sI352
V\u590d
p353
sI353
V\u51c6
p354
sI354
V\u9a6c
p355
sI355
V\u4e60
p356
sI356
V\u771f
p357
sI357
V\u8bed
p358
sI358
V\u96be
p359
sI359
V\u59cb
p360
sI360
V\u9645
p361
sI361
V\u89c2
p362
sI362
V\u5b8c
p363
sI363
V\u6807
p364
sI364
V\u5171
p365
sI365
V\u9879
p366
sI366
V\u5bb9
p367
sI367
V\u7ea7
p368
sI368
V\u5373
p369
sI369
V\u5fc5
p370
sI370
V\u7c7b
p371
sI371
V\u9886
p372
sI372
V\u672a
p373
sI373
V\u578b
p374
sI374
V\u6848
p375
sI375
V\u7ebf
p376
sI376
V\u8fd0
p377
sI377
V\u5386
p378
sI378
V\u9996
p379
sI379
V\u98ce
p380
sI380
V\u89c6
p381
sI381
V\u8272
p382
sI382
V\u5c14
p383
sI383
V\u6574
p384
sI384
V\u8d28
p385
sI385
V\u53c2
p386
sI386
V\u8f83
p387
sI387
V\u4e91
p388
sI388
V\u5177
p389
sI389
V\u5e03
p390
sI390
V\u7ec4
p391
sI391
V\u529e
p392
sI392
V\u6c14
p393
sI393
V\u9020
p394
sI394
V\u4e89
p395
sI395
V\u5f80
p396
sI396
V\u5f62
p397
sI397
V\u4efd
p398
sI398
V\u9632
p399
sI399
V\u5b83
p400
sI400
V\u8f66
p401
sI401
V\u6df1
p402
sI402
V\u795e
p403
sI403
V\u79f0
p404
sI404
V\u51b5
p405
sI405
V\u63a8
p406
sI406
V\u8d8a
p407
sI407
V\u82f1
p408
sI408
V\u6613
p409
sI409
V\u4e14
p410
sI410
V\u8425
p411
sI411
V\u6761
p412
sI412
V\u6d88
p413
sI413
V\u547d
p414
sI414
V\u56e2
p415
sI415
V\u786e
p416
sI416
V\u5212
p417
sI417
V\u7cbe
p418
sI418
V\u8db3
p419
sI419
V\u513f
p420
sI420
V\u5c40
p421
sI421
V\u98de
p422
sI422
V\u7a76
p423
sI423
V\u529f
p424
sI424
V\u7d22
p425
sI425
V\u8d70
p426
sI426
V\u671b
p427
sI427
V\u5374
p428
sI428
V\u67e5
p429
sI429
V\u6b66
p430
sI430
V\u601d
p431
sI431
V\u5175
p432
sI432
V\u8bc6
p433
sI433
V\u514b
p434
sI434
V\u6545
p435
sI435
V\u6b65
p436
sI436
V\u5f71
p437
sI437
V\u5e26
p438
sI438
V\u4e50
p439
sI439
V\u767d
p440
sI440
V\u6e90
p441
sI441
V\u53f2
p442
sI442
V\u822a
p443
sI443
V\u5fd7
p444
sI444
V\u5dde
p445
sI445
V\u9650
p446
sI446
V\u6e05
p447
sI447
V\u5149
p448
sI448
V\u88c5
p449
sI449
V\u8282
p450
sI450
V\u53f7
p451
sI451
V\u8f6c
p452
sI452
V\u56fe
p453
sI453
V\u6839
p454
sI454
V\u7701
p455
sI455
V\u8bb8
p456
sI456
V\u5f15
p457
sI457
V\u52bf
p458
sI458
V\u5931
p459
sI459
V\u5019
p460
sI460
V\u6d4e
p461
sI461
V\u663e
p462
sI462
V\u767e
p463
sI463
V\u51fb
p464
sI464
V\u5668
p465
sI465
V\u8c61
p466
sI466
V\u6548
p467
sI467
V\u4ec5
p468
sI468
V\u7231
p469
sI469
V\u5b98
p470
sI470
V\u5305
p471
sI471
V\u4f9b
p472
sI472
V\u4f4e
p473
sI473
V\u6f14
p474
sI474
V\u8fde
p475
sI475
V\u592b
p476
sI476
V\u5feb
p477
sI477
V\u7eed
p478
sI478
V\u652f
p479
sI479
V\u9a8c
p480
sI480
V\u9633
p481
sI481
V\u7537
p482
sI482
V\u89c9
p483
sI483
V\u82b1
p484
sI484
V\u6b7b
p485
sI485
V\u5b57
p486
sI486
V\u521b
p487
sI487
V\u7d20
p488
sI488
V\u534a
p489
sI489
V\u9884
p490
sI490
V\u97f3
p491
sI491
V\u6237
p492
sI492
V\u7ea6
p493
sI493
V\u7387
p494
sI494
V\u58f0
p495
sI495
V\u8bf7
p496
sI496
V\u7968
p497
sI497
V\u4fbf
p498
sI498
V\u6784
p499
sI499
V\u5b58
p500
sI500
V\u98df
p501
sI501
V\u6bb5
p502
sI502
V\u8fdc
p503
sI503
V\u8d23
p504
sI504
V\u62c9
p505
sI505
V\u623f
p506
sI506
V\u968f
p507
sI507
V\u65ad
p508
sI508
V\u6781
p509
sI509
V\u9500
p510
sI510
V\u6797
p511
sI511
V\u4e9a
p512
sI512
V\u9690
p513
sI513
V\u8d85
p514
sI514
V\u83b7
p515
sI515
V\u5347
p516
sI516
V\u91c7
p517
sI517
V\u7b97
p518
sI518
V\u76ca
p519
sI519
V\u4f18
p520
sI520
V\u613f
p521
sI521
V\u627e
p522
sI522
V\u6309
p523
sI523
V\u7ef4
p524
sI524
V\u6001
p525
sI525
V\u6ee1
p526
sI526
V\u5c3d
p527
sI527
V\u4ee4
p528
sI528
V\u6c49
p529
sI529
V\u59d4
p530
sI530
V\u516b
p531
sI531
V\u7ec8
p532
sI532
V\u8bad
p533
sI533
V\u503c
p534
sI534
V\u8d1f
p535
sI535
V\u5883
p536
sI536
V\u7ec3
p537
sI537
V\u6bcd
p538
sI538
V\u70ed
p539
sI539
V\u9002
p540
sI540
V\u6c5f
p541
sI541
V\u4f4f
p542
sI542
V\u5217
p543
sI543
V\u4e3e
p544
sI544
V\u666f
p545
sI545
V\u7f6e
p546
sI546
V\u9ec4
p547
sI547
V\u542c
p548
sI548
V\u9664
p549
sI549
V\u8bfb
p550
sI550
V\u4f17
p551
sI551
V\u54cd
p552
sI552
V\u53cb
p553
sI553
V\u52a9
p554
sI554
V\u5f39
p555
sI555
V\u5e72
p556
sI556
V\u5b69
p557
sI557
V\u8fb9
p558
sI558
V\u674e
p559
sI559
V\u516d
p560
sI560
V\u751a
p561
sI561
V\u7f57
p562
sI562
V\u81f4
p563
sI563
V\u65bd
p564
sI564
V\u6a21
p565
sI565
V\u6599
p566
sI566
V\u706b
p567
sI567
V\u50cf
p568
sI568
V\u53e4
p569
sI569
V\u773c
p570
sI570
V\u641c
p571
sI571
V\u79bb
p572
sI572
V\u95fb
p573
sI573
V\u5e9c
p574
sI574
V\u7ae0
p575
sI575
V\u65e9
p576
sI576
V\u7167
p577
sI577
V\u901f
p578
sI578
V\u5f55
p579
sI579
V\u9875
p580
sI580
V\u536b
p581
sI581
V\u9752
p582
sI582
V\u4f8b
p583
sI583
V\u77f3
p584
sI584
V\u7236
p585
sI585
V\u72b6
p586
sI586
V\u519c
p587
sI587
V\u6392
p588
sI588
V\u964d
p589
sI589
V\u5343
p590
sI590
V\u62e9
p591
sI591
V\u8bc4
p592
sI592
V\u7597
p593
sI593
V\u73ed
p594
sI594
V\u8d2d
p595
sI595
V\u5c5e
p596
sI596
V\u9769
p597
sI597
V\u591f
p598
sI598
V\u73af
p599
sI599
V\u5360
p600
sI600
V\u517b
p601
sI601
V\u66fe
p602
sI602
V\u7c73
p603
sI603
V\u7565
p604
sI604
V\u7ad9
p605
sI605
V\u80dc
p606
sI606
V\u6838
p607
sI607
V\u5426
p608
sI608
V\u72ec
p609
sI609
V\u62a4
p610
sI610
V\u94b1
p611
sI611
V\u7ea2
p612
sI612
V\u8303
p613
sI613
V\u53e6
p614
sI614
V\u987b
p615
sI615
V\u4f59
p616
sI616
V\u5c45
p617
sI617
V\u867d
p618
sI618
V\u6bd5
p619
sI619
V\u653b
p620
sI620
V\u65cf
p621
sI621
V\u5403
p622
sI622
V\u559c
p623
sI623
V\u9648
p624
sI624
V\u8f7b
p625
sI625
V\u4eb2
p626
sI626
V\u79ef
p627
sI627
V\u661f
p628
sI628
V\u5047
p629
sI629
V\u53bf
p630
sI630
V\u5199
p631
sI631
V\u5218
p632
sI632
V\u8d22
p633
sI633
V\u4ebf
p634
sI634
V\u67d0
p635
sI635
V\u62ec
p636
sI636
V\u5f8b
p637
sI637
V\u9152
p638
sI638
V\u7b56
p639
sI639
V\u521d
p640
sI640
V\u6279
p641
sI641
V\u666e
p642
sI642
V\u7247
p643
sI643
V\u534f
p644
sI644
V\u552e
p645
sI645
V\u4e43
p646
sI646
V\u843d
p647
sI647
V\u7559
p648
sI648
V\u5c81
p649
sI649
V\u7a81
p650
sI650
V\u53cc
p651
sI651
V\u7edd
p652
sI652
V\u9669
p653
sI653
V\u5b63
p654
sI654
V\u8c13
p655
sI655
V\u4e25
p656
sI656
V\u6751
p657
sI657
V\u5174
p658
sI658
V\u56f4
p659
sI659
V\u4f9d
p660
sI660
V\u5ff5
p661
sI661
V\u82cf
p662
sI662
V\u5e95
p663
sI663
V\u538b
p664
sI664
V\u7834
p665
sI665
V\u6cb3
p666
sI666
V\u600e
p667
sI667
V\u7ec6
p668
sI668
V\u5bcc
p669
sI669
V\u5207
p670
sI670
V\u4e4e
p671
sI671
V\u5f85
p672
sI672
V\u5ba4
p673
sI673
V\u8840
p674
sI674
V\u5e1d
p675
sI675
V\u541b
p676
sI676
V\u5747
p677
sI677
V\u7edc
p678
sI678
V\u724c
p679
sI679
V\u9646
p680
sI680
V\u5370
p681
sI681
V\u5c42
p682
sI682
V\u6597
p683
sI683
V\u7b80
p684
sI684
V\u8bb2
p685
sI685
V\u4e70
p686
sI686
V\u8c08
p687
sI687
V\u7eaa
p688
sI688
V\u677f
p689
sI689
V\u5e0c
p690
sI690
V\u8058
p691
sI691
V\u5145
p692
sI692
V\u5f52
p693
sI693
V\u5de6
p694
sI694
V\u6d4b
p695
sI695
V\u6b62
p696
sI696
V\u7b11
p697
sI697
V\u5dee
p698
sI698
V\u63a7
p699
sI699
V\u62c5
p700
sI700
V\u6740
p701
sI701
V\u822c
p702
sI702
V\u671d
p703
sI703
V\u76d1
p704
sI704
V\u627f
p705
sI705
V\u64ad
p706
sI706
V\u4ea6
p707
sI707
V\u4e34
p708
sI708
V\u94f6
p709
sI709
V\u5c3c
p710
sI710
V\u4ecb
p711
sI711
V\u535a
p712
sI712
V\u8f6f
p713
sI713
V\u6b22
p714
sI714
V\u5bb3
p715
sI715
V\u4e03
p716
sI716
V\u826f
p717
sI717
V\u5584
p718
sI718
V\u79fb
p719
sI719
V\u571f
p720
sI720
V\u8bfe
p721
sI721
V\u514d
p722
sI722
V\u5c04
p723
sI723
V\u5ba1
p724
sI724
V\u5065
p725
sI725
V\u89d2
p726
sI726
V\u4f0a
p727
sI727
V\u6b32
p728
sI728
V\u4f3c
p729
sI729
V\u914d
p730
sI730
V\u65e2
p731
sI731
V\u62ff
p732
sI732
V\u521a
p733
sI733
V\u7ee9
p734
sI734
V\u5bc6
p735
sI735
V\u7ec7
p736
sI736
V\u4e5d
p737
sI737
V\u7f16
p738
sI738
V\u72d0
p739
sI739
V\u53f3
p740
sI740
V\u9f99
p741
sI741
V\u5f02
p742
sI742
V\u82e5
p743
sI743
V\u767b
p744
sI744
V\u68c0
p745
sI745
V\u7ee7
p746
sI746
V\u6790
p747
sI747
V\u6b3e
p748
sI748
V\u7eb3
p749
sI749
V\u5a01
p750
sI750
V\u5fae
p751
sI751
V\u57df
p752
sI752
V\u9f50
p753
sI753
V\u4e45
p754
sI754
V\u5ba3
p755
sI755
V\u963f
p756
sI756
V\u4fc4
p757
sI757
V\u5e97
p758
sI758
V\u5eb7
p759
sI759
V\u6267
p760
sI760
V\u9732
p761
sI761
V\u9999
p762
sI762
V\u989d
p763
sI763
V\u7d27
p764
sI764
V\u57f9
p765
sI765
V\u6fc0
p766
sI766
V\u5361
p767
sI767
V\u77ed
p768
sI768
V\u7fa4
p769
sI769
V\u6625
p770
sI770
V\u4ecd
p771
sI771
V\u4f24
p772
sI772
V\u97e9
p773
sI773
V\u695a
p774
sI774
V\u7f3a
p775
sI775
V\u6d32
p776
sI776
V\u7248
p777
sI777
V\u7b54
p778
sI778
V\u4fee
p779
sI779
V\u5a92
p780
sI780
V\u79e6
p781
sI781
V\u9519
p782
sI782
V\u6b27
p783
sI783
V\u56ed
p784
sI784
V\u51cf
p785
sI785
V\u6025
p786
sI786
V\u53eb
p787
sI787
V\u8bc9
p788
sI788
V\u8ff0
p789
sI789
V\u949f
p790
sI790
V\u9047
p791
sI791
V\u6e2f
p792
sI792
V\u8865
p793
sI793
V\u9001
p794
sI794
V\u6258
p795
sI795
V\u591c
p796
sI796
V\u5170
p797
sI797
V\u8bf8
p798
sI798
V\u5462
p799
sI799
V\u5e2d
p800
sI800
V\u5c1a
p801
sI801
V\u798f
p802
sI802
V\u5956
p803
sI803
V\u515a
p804
sI804
V\u5750
p805
sI805
V\u5df4
p806
sI806
V\u6bdb
p807
sI807
V\u5bdf
p808
sI808
V\u5947
p809
sI809
V\u5b59
p810
sI810
V\u7ade
p811
sI811
V\u5b81
p812
sI812
V\u7533
p813
sI813
V\u7591
p814
sI814
V\u9ed1
p815
sI815
V\u52b3
p816
sI816
V\u8111
p817
sI817
V\u8230
p818
sI818
V\u665a
p819
sI819
V\u76d8
p820
sI820
V\u5f81
p821
sI821
V\u6ce2
p822
sI822
V\u80cc
p823
sI823
V\u8bbf
p824
sI824
V\u4e92
p825
sI825
V\u8d25
p826
sI826
V\u82e6
p827
sI827
V\u9636
p828
sI828
V\u5473
p829
sI829
V\u8ddf
p830
sI830
V\u6c99
p831
sI831
V\u6e7e
p832
sI832
V\u5c9b
p833
sI833
V\u6325
p834
sI834
V\u793c
p835
sI835
V\u8bcd
p836
sI836
V\u5b9d
p837
sI837
V\u5238
p838
sI838
V\u8651
p839
sI839
V\u5f90
p840
sI840
V\u60a3
p841
sI841
V\u8d35
p842
sI842
V\u6362
p843
sI843
V\u77e3
p844
sI844
V\u620f
p845
sI845
V\u827a
p846
sI846
V\u4faf
p847
sI847
V\u987e
p848
sI848
V\u526f
p849
sI849
V\u5987
p850
sI850
V\u8463
p851
sI851
V\u575a
p852
sI852
V\u542b
p853
sI853
V\u6388
p854
sI854
V\u7687
p855
sI855
V\u4ed8
p856
sI856
V\u575b
p857
sI857
V\u7686
p858
sI858
V\u6297
p859
sI859
V\u85cf
p860
sI860
V\u6f5c
p861
sI861
V\u5c01
p862
sI862
V\u7840
p863
sI863
V\u6750
p864
sI864
V\u505c
p865
sI865
V\u5224
p866
sI866
V\u5438
p867
sI867
V\u8f6e
p868
sI868
V\u5b88
p869
sI869
V\u6da8
p870
sI870
V\u6d3e
p871
sI871
V\u5f69
p872
sI872
V\u54ea
p873
sI873
V\u7b14
p874
sI874
V\u6c0f
p875
sI875
V\u5c24
p876
sI876
V\u9010
p877
sI877
V\u51b2
p878
sI878
V\u8be2
p879
sI879
V\u94c1
p880
sI880
V\u8863
p881
sI881
V\u7ecd
p882
sI882
V\u8d75
p883
sI883
V\u5f1f
p884
sI884
V\u6d0b
p885
sI885
V\u5348
p886
sI886
V\u5965
p887
sI887
V\u6628
p888
sI888
V\u96f7
p889
sI889
V\u8033
p890
sI890
V\u8c22
p891
sI891
V\u4e61
p892
sI892
V\u8ffd
p893
sI893
V\u76ae
p894
sI894
V\u53e5
p895
sI895
V\u523b
p896
sI896
V\u6cb9
p897
sI897
V\u8bef
p898
sI898
V\u5bab
p899
sI899
V\u5de8
p900
sI900
V\u67b6
p901
sI901
V\u6e56
p902
sI902
V\u56fa
p903
sI903
V\u75db
p904
sI904
V\u697c
p905
sI905
V\u676f
p906
sI906
V\u5957
p907
sI907
V\u6050
p908
sI908
V\u6562
p909
sI909
V\u9042
p910
sI910
V\u900f
p911
sI911
V\u85aa
p912
sI912
V\u5a5a
p913
sI913
V\u56f0
p914
sI914
V\u79c0
p915
sI915
V\u5e2e
p916
sI916
V\u878d
p917
sI917
V\u9c81
p918
sI918
V\u9057
p919
sI919
V\u70c8
p920
sI920
V\u5417
p921
sI921
V\u5434
p922
sI922
V\u7adf
p923
sI923
V\u60ca
p924
sI924
V\u5e45
p925
sI925
V\u6e29
p926
sI926
V\u81e3
p927
sI927
V\u9c9c
p928
sI928
V\u753b
p929
sI929
V\u62e5
p930
sI930
V\u7f6a
p931
sI931
V\u547c
p932
sI932
V\u8b66
p933
sI933
V\u5377
p934
sI934
V\u677e
p935
sI935
V\u7532
p936
sI936
V\u725b
p937
sI937
V\u8bfa
p938
sI938
V\u5ead
p939
sI939
V\u4f11
p940
sI940
V\u5723
p941
sI941
V\u9986
p942
sI942
V\u9000
p943
sI943
V\u83ab
p944
sI944
V\u8baf
p945
sI945
V\u6e10
p946
sI946
V\u719f
p947
sI947
V\u80af
p948
sI948
V\u51a0
p949
sI949
V\u8c01
p950
sI950
V\u4e71
p951
sI951
V\u6717
p952
sI952
V\u602a
p953
sI953
V\u590f
p954
sI954
V\u5371
p955
sI955
V\u7801
p956
sI956
V\u8df3
p957
sI957
V\u5356
p958
sI958
V\u7b7e
p959
sI959
V\u5757
p960
sI960
V\u76d6
p961
sI961
V\u675f
p962
sI962
V\u6bd2
p963
sI963
V\u6768
p964
sI964
V\u996e
p965
sI965
V\u5c4a
p966
sI966
V\u5e8f
p967
sI967
V\u7075
p968
sI968
V\u6000
p969
sI969
V\u969c
p970
sI970
V\u6c38
p971
sI971
V\u987a
p972
sI972
V\u8f7d
p973
sI973
V\u5012
p974
sI974
V\u59d3
p975
sI975
V\u4e3d
p976
sI976
V\u9760
p977
sI977
V\u6982
p978
sI978
V\u8f93
p979
sI979
V\u8d27
p980
sI980
V\u75c7
p981
sI981
V\u907f
p982
sI982
V\u5bfb
p983
sI983
V\u4e30
p984
sI984
V\u64cd
p985
sI985
V\u9488
p986
sI986
V\u7a7f
p987
sI987
V\u5ef6
p988
sI988
V\u654c
p989
sI989
V\u6089
p990
sI990
V\u53ec
p991
sI991
V\u7530
p992
sI992
V\u7a33
p993
sI993
V\u5178
p994
sI994
V\u5427
p995
sI995
V\u72af
p996
sI996
V\u996d
p997
sI997
V\u63e1
p998
sI998
V\u67d3
p999
sI999
V\u6015
p1000
sI1000
V\u7aef
p1001
sI1001
V\u592e
p1002
sI1002
V\u9634
p1003
sI1003
V\u80e1
p1004
sI1004
V\u5ea7
p1005
sI1005
V\u8457
p1006
sI1006
V\u635f
p1007
sI1007
V\u501f
p1008
sI1008
V\u670b
p1009
sI1009
V\u6551
p1010
sI1010
V\u5e93
p1011
sI1011
V\u9910
p1012
sI1012
V\u5802
p1013
sI1013
V\u5e86
p1014
sI1014
V\u5ffd
p1015
sI1015
V\u6da6
p1016
sI1016
V\u8fce
p1017
sI1017
V\u4ea1
p1018
sI1018
V\u8089
p1019
sI1019
V\u9759
p1020
sI1020
V\u9605
p1021
sI1021
V\u76db
p1022
sI1022
V\u7efc
p1023
sI1023
V\u6728
p1024
sI1024
V\u75be
p1025
sI1025
V\u6076
p1026
sI1026
V\u4eab
p1027
sI1027
V\u59bb
p1028
sI1028
V\u5382
p1029
sI1029
V\u6742
p1030
sI1030
V\u523a
p1031
sI1031
V\u79d8
p1032
sI1032
V\u50e7
p1033
sI1033
V\u5e78
p1034
sI1034
V\u6269
p1035
sI1035
V\u88c1
p1036
sI1036
V\u4f73
p1037
sI1037
V\u8da3
p1038
sI1038
V\u667a
p1039
sI1039
V\u4fc3
p1040
sI1040
V\u5f03
p1041
sI1041
V\u4f2f
p1042
sI1042
V\u5409
p1043
sI1043
V\u5b9c
p1044
sI1044
V\u5267
p1045
sI1045
V\u91ce
p1046
sI1046
V\u9644
p1047
sI1047
V\u8ddd
p1048
sI1048
V\u5510
p1049
sI1049
V\u91ca
p1050
sI1050
V\u8349
p1051
sI1051
V\u5e01
p1052
sI1052
V\u9aa8
p1053
sI1053
V\u5f31
p1054
sI1054
V\u4ff1
p1055
sI1055
V\u987f
p1056
sI1056
V\u6563
p1057
sI1057
V\u8ba8
p1058
sI1058
V\u7761
p1059
sI1059
V\u63a2
p1060
sI1060
V\u90d1
p1061
sI1061
V\u9891
p1062
sI1062
V\u8239
p1063
sI1063
V\u865a
p1064
sI1064
V\u9014
p1065
sI1065
V\u65e7
p1066
sI1066
V\u6811
p1067
sI1067
V\u638c
p1068
sI1068
V\u904d
p1069
sI1069
V\u4e88
p1070
sI1070
V\u68a6
p1071
sI1071
V\u5733
p1072
sI1072
V\u68ee
p1073
sI1073
V\u6cf0
p1074
sI1074
V\u6162
p1075
sI1075
V\u7259
p1076
sI1076
V\u76df
p1077
sI1077
V\u6311
p1078
sI1078
V\u952e
p1079
sI1079
V\u9635
p1080
sI1080
V\u66b4
p1081
sI1081
V\u8131
p1082
sI1082
V\u6c47
p1083
sI1083
V\u6b4c
p1084
sI1084
V\u7981
p1085
sI1085
V\u6d6a
p1086
sI1086
V\u51b7
p1087
sI1087
V\u8247
p1088
sI1088
V\u96c5
p1089
sI1089
V\u8ff7
p1090
sI1090
V\u62dc
p1091
sI1091
V\u65e6
p1092
sI1092
V\u79c1
p1093
sI1093
V\u60a8
p1094
sI1094
V\u542f
p1095
sI1095
V\u7eb7
p1096
sI1096
V\u54c8
p1097
sI1097
V\u8ba2
p1098
sI1098
V\u6298
p1099
sI1099
V\u7d2f
p1100
sI1100
V\u7389
p1101
sI1101
V\u811a
p1102
sI1102
V\u4eae
p1103
sI1103
V\u664b
p1104
sI1104
V\u7956
p1105
sI1105
V\u83dc
p1106
sI1106
V\u9c7c
p1107
sI1107
V\u9192
p1108
sI1108
V\u8c0b
p1109
sI1109
V\u59d0
p1110
sI1110
V\u586b
p1111
sI1111
V\u7eb8
p1112
sI1112
V\u6cfd
p1113
sI1113
V\u6212
p1114
sI1114
V\u5e8a
p1115
sI1115
V\u52aa
p1116
sI1116
V\u6db2
p1117
sI1117
V\u54a8
p1118
sI1118
V\u585e
p1119
sI1119
V\u906d
p1120
sI1120
V\u73a9
p1121
sI1121
V\u6d25
p1122
sI1122
V\u4f26
p1123
sI1123
V\u593a
p1124
sI1124
V\u8f91
p1125
sI1125
V\u764c
p1126
sI1126
V\u4e39
p1127
sI1127
V\u8363
p1128
sI1128
V\u4eea
p1129
sI1129
V\u732e
p1130
sI1130
V\u7b26
p1131
sI1131
V\u7ffb
p1132
sI1132
V\u4f30
p1133
sI1133
V\u4e58
p1134
sI1134
V\u8bda
p1135
sI1135
V\u5ddd
p1136
sI1136
V\u60e0
p1137
sI1137
V\u6d89
p1138
sI1138
V\u8857
p1139
sI1139
V\u8bd7
p1140
sI1140
V\u66f2
p1141
sI1141
V\u5b54
p1142
sI1142
V\u5a18
p1143
sI1143
V\u6012
p1144
sI1144
V\u626c
p1145
sI1145
V\u95f2
p1146
sI1146
V\u8499
p1147
sI1147
V\u5c0a
p1148
sI1148
V\u5766
p1149
sI1149
V\u8861
p1150
sI1150
V\u8fea
p1151
sI1151
V\u9547
p1152
sI1152
V\u6c89
p1153
sI1153
V\u7f72
p1154
sI1154
V\u5996
p1155
sI1155
V\u8138
p1156
sI1156
V\u51c0
p1157
sI1157
V\u54e5
p1158
sI1158
V\u9876
p1159
sI1159
V\u6389
p1160
sI1160
V\u539a
p1161
sI1161
V\u9b4f
p1162
sI1162
V\u65d7
p1163
sI1163
V\u5144
p1164
sI1164
V\u8350
p1165
sI1165
V\u7ae5
p1166
sI1166
V\u5242
p1167
sI1167
V\u4e4f
p1168
sI1168
V\u500d
p1169
sI1169
V\u8428
p1170
sI1170
V\u504f
p1171
sI1171
V\u6d17
p1172
sI1172
V\u60ef
p1173
sI1173
V\u706d
p1174
sI1174
V\u5f84
p1175
sI1175
V\u72b9
p1176
sI1176
V\u8d8b
p1177
sI1177
V\u62cd
p1178
sI1178
V\u6863
p1179
sI1179
V\u7f5a
p1180
sI1180
V\u7eaf
p1181
sI1181
V\u6d1b
p1182
sI1182
V\u6beb
p1183
sI1183
V\u6881
p1184
sI1184
V\u96e8
p1185
sI1185
V\u745e
p1186
sI1186
V\u5b97
p1187
sI1187
V\u9f13
p1188
sI1188
V\u8f9e
p1189
sI1189
V\u6d1e
p1190
sI1190
V\u79cb
p1191
sI1191
V\u90ce
p1192
sI1192
V\u820d
p1193
sI1193
V\u84dd
p1194
sI1194
V\u63aa
p1195
sI1195
V\u7bee
p1196
sI1196
V\u8d37
p1197
sI1197
V\u4f5b
p1198
sI1198
V\u574f
p1199
sI1199
V\u4fd7
p1200
sI1200
V\u6b8a
p1201
sI1201
V\u70ae
p1202
sI1202
V\u5385
p1203
sI1203
V\u7b51
p1204
sI1204
V\u59c6
p1205
sI1205
V\u8bd1
p1206
sI1206
V\u6444
p1207
sI1207
V\u5352
p1208
sI1208
V\u8c37
p1209
sI1209
V\u5988
p1210
sI1210
V\u805a
p1211
sI1211
V\u8fdd
p1212
sI1212
V\u5fd8
p1213
sI1213
V\u9b3c
p1214
sI1214
V\u89e6
p1215
sI1215
V\u4e01
p1216
sI1216
V\u7fbd
p1217
sI1217
V\u8d2b
p1218
sI1218
V\u5211
p1219
sI1219
V\u5c97
p1220
sI1220
V\u5e84
p1221
sI1221
V\u4f1f
p1222
sI1222
V\u517c
p1223
sI1223
V\u4e73
p1224
sI1224
V\u53f6
p1225
sI1225
V\u51e1
p1226
sI1226
V\u9f84
p1227
sI1227
V\u5bbd
p1228
sI1228
V\u5cf0
p1229
sI1229
V\u5b8b
p1230
sI1230
V\u786c
p1231
sI1231
V\u5cb8
p1232
sI1232
V\u8fc5
p1233
sI1233
V\u559d
p1234
sI1234
V\u62df
p1235
sI1235
V\u96c4
p1236
sI1236
V\u5f79
p1237
sI1237
V\u96f6
p1238
sI1238
V\u821e
p1239
sI1239
V\u6697
p1240
sI1240
V\u6f6e
p1241
sI1241
V\u7eff
p1242
sI1242
V\u503e
p1243
sI1243
V\u8be6
p1244
sI1244
V\u7a0e
p1245
sI1245
V\u9178
p1246
sI1246
V\u5f92
p1247
sI1247
V\u4f34
p1248
sI1248
V\u8bca
p1249
sI1249
V\u8dd1
p1250
sI1250
V\u543e
p1251
sI1251
V\u71d5
p1252
sI1252
V\u6fb3
p1253
sI1253
V\u554a
p1254
sI1254
V\u5854
p1255
sI1255
V\u5bbf
p1256
sI1256
V\u6069
p1257
sI1257
V\u5fd9
p1258
sI1258
V\u7763
p1259
sI1259
V\u672b
p1260
sI1260
V\u4f10
p1261
sI1261
V\u7bc7
p1262
sI1262
V\u654f
p1263
sI1263
V\u8d38
p1264
sI1264
V\u5de7
p1265
sI1265
V\u622a
p1266
sI1266
V\u6c9f
p1267
sI1267
V\u809d
p1268
sI1268
V\u8ff9
p1269
sI1269
V\u70df
p1270
sI1270
V\u52c7
p1271
sI1271
V\u4e4c
p1272
sI1272
V\u8d5e
p1273
sI1273
V\u950b
p1274
sI1274
V\u8fd4
p1275
sI1275
V\u8feb
p1276
sI1276
V\u51ed
p1277
sI1277
V\u864e
p1278
sI1278
V\u6731
p1279
sI1279
V\u62d4
p1280
sI1280
V\u63f4
p1281
sI1281
V\u641e
p1282
sI1282
V\u7206
p1283
sI1283
V\u52e4
p1284
sI1284
V\u62a2
p1285
sI1285
V\u656c
p1286
sI1286
V\u8d76
p1287
sI1287
V\u62b1
p1288
sI1288
V\u4ec1
p1289
sI1289
V\u79d2
p1290
sI1290
V\u7f13
p1291
sI1291
V\u5fa1
p1292
sI1292
V\u552f
p1293
sI1293
V\u7f29
p1294
sI1294
V\u5c1d
p1295
sI1295
V\u8d34
p1296
sI1296
V\u5954
p1297
sI1297
V\u8de8
p1298
sI1298
V\u708e
p1299
sI1299
V\u6c64
p1300
sI1300
V\u4fb5
p1301
sI1301
V\u9a91
p1302
sI1302
V\u52b1
p1303
sI1303
V\u6234
p1304
sI1304
V\u80a4
p1305
sI1305
V\u67aa
p1306
sI1306
V\u690d
p1307
sI1307
V\u7624
p1308
sI1308
V\u57c3
p1309
sI1309
V\u6c7d
p1310
sI1310
V\u7f8a
p1311
sI1311
V\u5bbe
p1312
sI1312
V\u66ff
p1313
sI1313
V\u5e55
p1314
sI1314
V\u8d1d
p1315
sI1315
V\u5200
p1316
sI1316
V\u6620
p1317
sI1317
V\u5f7b
p1318
sI1318
V\u9a7b
p1319
sI1319
V\u62ab
p1320
sI1320
V\u6293
p1321
sI1321
V\u5949
p1322
sI1322
V\u62b5
p1323
sI1323
V\u80bf
p1324
sI1324
V\u9ebb
p1325
sI1325
V\u70b8
p1326
sI1326
V\u7e41
p1327
sI1327
V\u8d62
p1328
sI1328
V\u8336
p1329
sI1329
V\u4f0f
p1330
sI1330
V\u6885
p1331
sI1331
V\u72c2
p1332
sI1332
V\u5fe7
p1333
sI1333
V\u8c6a
p1334
sI1334
V\u6682
p1335
sI1335
V\u8d3e
p1336
sI1336
V\u6d01
p1337
sI1337
V\u7eea
p1338
sI1338
V\u520a
p1339
sI1339
V\u5fc6
p1340
sI1340
V\u6865
p1341
sI1341
V\u6653
p1342
sI1342
V\u518c
p1343
sI1343
V\u6f2b
p1344
sI1344
V\u5706
p1345
sI1345
V\u9ed8
p1346
sI1346
V\u59be
p1347
sI1347
V\u4fa7
p1348
sI1348
V\u5740
p1349
sI1349
V\u6a2a
p1350
sI1350
V\u5076
p1351
sI1351
V\u72d7
p1352
sI1352
V\u9675
p1353
sI1353
V\u4f19
p1354
sI1354
V\u675c
p1355
sI1355
V\u5fcd
p1356
sI1356
V\u8584
p1357
sI1357
V\u96ea
p1358
sI1358
V\u9677
p1359
sI1359
V\u4ed9
p1360
sI1360
V\u604b
p1361
sI1361
V\u7126
p1362
sI1362
V\u7109
p1363
sI1363
V\u70e6
p1364
sI1364
V\u7518
p1365
sI1365
V\u817a
p1366
sI1366
V\u9887
p1367
sI1367
V\u8d4f
p1368
sI1368
V\u80a0
p1369
sI1369
V\u5e9f
p1370
sI1370
V\u5899
p1371
sI1371
V\u503a
p1372
sI1372
V\u827e
p1373
sI1373
V\u6770
p1374
sI1374
V\u6b8b
p1375
sI1375
V\u5192
p1376
sI1376
V\u5c4b
p1377
sI1377
V\u5821
p1378
sI1378
V\u66f9
p1379
sI1379
V\u50a8
p1380
sI1380
V\u83b1
p1381
sI1381
V\u6302
p1382
sI1382
V\u7eb5
p1383
sI1383
V\u5b5d
p1384
sI1384
V\u73cd
p1385
sI1385
V\u9ea6
p1386
sI1386
V\u9003
p1387
sI1387
V\u594b
p1388
sI1388
V\u89c8
p1389
sI1389
V\u955c
p1390
sI1390
V\u7f18
p1391
sI1391
V\u662d
p1392
sI1392
V\u6446
p1393
sI1393
V\u8dcc
p1394
sI1394
V\u80c1
p1395
sI1395
V\u660c
p1396
sI1396
V\u8036
p1397
sI1397
V\u8179
p1398
sI1398
V\u507f
p1399
sI1399
V\u86cb
p1400
sI1400
V\u76c8
p1401
sI1401
V\u74e6
p1402
sI1402
V\u6469
p1403
sI1403
V\u6c88
p1404
sI1404
V\u60df
p1405
sI1405
V\u8fc1
p1406
sI1406
V\u51b0
p1407
sI1407
V\u8f9b
p1408
sI1408
V\u9707
p1409
sI1409
V\u65c1
p1410
sI1410
V\u6cc9
p1411
sI1411
V\u5708
p1412
sI1412
V\u5de1
p1413
sI1413
V\u7f62
p1414
sI1414
V\u6cdb
p1415
sI1415
V\u7a77
p1416
sI1416
V\u4f38
p1417
sI1417
V\u66fc
p1418
sI1418
V\u6ecb
p1419
sI1419
V\u4e08
p1420
sI1420
V\u989c
p1421
sI1421
V\u52d2
p1422
sI1422
V\u60b2
p1423
sI1423
V\u80a5
p1424
sI1424
V\u90ed
p1425
sI1425
V\u6df7
p1426
sI1426
V\u706f
p1427
sI1427
V\u79df
p1428
sI1428
V\u9e21
p1429
sI1429
V\u963b
p1430
sI1430
V\u9091
p1431
sI1431
V\u4f0d
p1432
sI1432
V\u8df5
p1433
sI1433
V\u9a7e
p1434
sI1434
V\u9b54
p1435
sI1435
V\u62d2
p1436
sI1436
V\u61c2
p1437
sI1437
V\u7cd6
p1438
sI1438
V\u810f
p1439
sI1439
V\u6cbf
p1440
sI1440
V\u7fc1
p1441
sI1441
V\u80c6
p1442
sI1442
V\u60e7
p1443
sI1443
V\u804a
p1444
sI1444
V\u643a
p1445
sI1445
V\u6668
p1446
sI1446
V\u6ed1
p1447
sI1447
V\u83cc
p1448
sI1448
V\u8f85
p1449
sI1449
V\u8d24
p1450
sI1450
V\u9274
p1451
sI1451
V\u4e1d
p1452
sI1452
V\u5c3e
p1453
sI1453
V\u8d74
p1454
sI1454
V\u5428
p1455
sI1455
V\u5b87
p1456
sI1456
V\u7720
p1457
sI1457
V\u8102
p1458
sI1458
V\u7c4d
p1459
sI1459
V\u5f7c
p1460
sI1460
V\u6c61
p1461
sI1461
V\u8c8c
p1462
sI1462
V\u5f04
p1463
sI1463
V\u90e1
p1464
sI1464
V\u5976
p1465
sI1465
V\u83f2
p1466
sI1466
V\u70e7
p1467
sI1467
V\u5782
p1468
sI1468
V\u58ee
p1469
sI1469
V\u6d6e
p1470
sI1470
V\u5f17
p1471
sI1471
V\u8d56
p1472
sI1472
V\u73e0
p1473
sI1473
V\u8fdf
p1474
sI1474
V\u6e20
p1475
sI1475
V\u5bff
p1476
sI1476
V\u9686
p1477
sI1477
V\u5251
p1478
sI1478
V\u80de
p1479
sI1479
V\u8dc3
p1480
sI1480
V\u7a0d
p1481
sI1481
V\u6108
p1482
sI1482
V\u8377
p1483
sI1483
V\u58c1
p1484
sI1484
V\u537f
p1485
sI1485
V\u90a6
p1486
sI1486
V\u5fe0
p1487
sI1487
V\u6447
p1488
sI1488
V\u609f
p1489
sI1489
V\u9526
p1490
sI1490
V\u6270
p1491
sI1491
V\u88ad
p1492
sI1492
V\u76fe
p1493
sI1493
V\u8258
p1494
sI1494
V\u6d53
p1495
sI1495
V\u7b79
p1496
sI1496
V\u76d7
p1497
sI1497
V\u54ed
p1498
sI1498
V\u6de1
p1499
sI1499
V\u5b55
p1500
sI1500
V\u6263
p1501
sI1501
V\u5448
p1502
sI1502
V\u6028
p1503
sI1503
V\u7433
p1504
sI1504
V\u5b64
p1505
sI1505
V\u5974
p1506
sI1506
V\u9a71
p1507
sI1507
V\u632f
p1508
sI1508
V\u95ed
p1509
sI1509
V\u9694
p1510
sI1510
V\u5bd2
p1511
sI1511
V\u6c5d
p1512
sI1512
V\u8d2f
p1513
sI1513
V\u6062
p1514
sI1514
V\u9970
p1515
sI1515
V\u8361
p1516
sI1516
V\u59d1
p1517
sI1517
V\u68b0
p1518
sI1518
V\u731b
p1519
sI1519
V\u4e8f
p1520
sI1520
V\u9501
p1521
sI1521
V\u7855
p1522
sI1522
V\u8212
p1523
sI1523
V\u5609
p1524
sI1524
V\u5b8f
p1525
sI1525
V\u52b2
p1526
sI1526
V\u5e05
p1527
sI1527
V\u8a89
p1528
sI1528
V\u756a
p1529
sI1529
V\u60dc
p1530
sI1530
V\u80f8
p1531
sI1531
V\u62bd
p1532
sI1532
V\u8109
p1533
sI1533
V\u5b5f
p1534
sI1534
V\u9063
p1535
sI1535
V\u788d
p1536
sI1536
V\u8f86
p1537
sI1537
V\u7384
p1538
sI1538
V\u9676
p1539
sI1539
V\u4e27
p1540
sI1540
V\u77ff
p1541
sI1541
V\u94fe
p1542
sI1542
V\u77db
p1543
sI1543
V\u9e1f
p1544
sI1544
V\u5937
p1545
sI1545
V\u5634
p1546
sI1546
V\u5761
p1547
sI1547
V\u5415
p1548
sI1548
V\u4fa6
p1549
sI1549
V\u9e23
p1550
sI1550
V\u59b9
p1551
sI1551
V\u9093
p1552
sI1552
V\u94a2
p1553
sI1553
V\u5999
p1554
sI1554
V\u6b23
p1555
sI1555
V\u9a97
p1556
sI1556
V\u6d59
p1557
sI1557
V\u8fbd
p1558
sI1558
V\u594f
p1559
sI1559
V\u5531
p1560
sI1560
V\u8150
p1561
sI1561
V\u4ec6
p1562
sI1562
V\u795d
p1563
sI1563
V\u51ac
p1564
sI1564
V\u97e6
p1565
sI1565
V\u90ae
p1566
sI1566
V\u916c
p1567
sI1567
V\u5c3a
p1568
sI1568
V\u6daf
p1569
sI1569
V\u6bc1
p1570
sI1570
V\u7c89
p1571
sI1571
V\u4e95
p1572
sI1572
V\u8170
p1573
sI1573
V\u808c
p1574
sI1574
V\u642d
p1575
sI1575
V\u6068
p1576
sI1576
V\u4e59
p1577
sI1577
V\u52ff
p1578
sI1578
V\u5a46
p1579
sI1579
V\u95f9
p1580
sI1580
V\u730e
p1581
sI1581
V\u5389
p1582
sI1582
V\u54c0
p1583
sI1583
V\u9012
p1584
sI1584
V\u5ec9
p1585
sI1585
V\u5367
p1586
sI1586
V\u8c46
p1587
sI1587
V\u63ed
p1588
sI1588
V\u74f6
p1589
sI1589
V\u848b
p1590
sI1590
V\u5fcc
p1591
sI1591
V\u8d21
p1592
sI1592
V\u9080
p1593
sI1593
V\u8986
p1594
sI1594
V\u5893
p1595
sI1595
V\u6377
p1596
sI1596
V\u9a82
p1597
sI1597
V\u82b3
p1598
sI1598
V\u8017
p1599
sI1599
V\u5948
p1600
sI1600
V\u817e
p1601
sI1601
V\u6291
p1602
sI1602
V\u7275
p1603
sI1603
V\u5c65
p1604
sI1604
V\u7ed5
p1605
sI1605
V\u775b
p1606
sI1606
V\u70bc
p1607
sI1607
V\u63cf
p1608
sI1608
V\u8f89
p1609
sI1609
V\u8083
p1610
sI1610
V\u5faa
p1611
sI1611
V\u4eff
p1612
sI1612
V\u846c
p1613
sI1613
V\u6f0f
p1614
sI1614
V\u6070
p1615
sI1615
V\u6bbf
p1616
sI1616
V\u9065
p1617
sI1617
V\u5c3f
p1618
sI1618
V\u51ef
p1619
sI1619
V\u4ef2
p1620
sI1620
V\u5a62
p1621
sI1621
V\u80c3
p1622
sI1622
V\u7ffc
p1623
sI1623
V\u5362
p1624
sI1624
V\u614e
p1625
sI1625
V\u53a6
p1626
sI1626
V\u9888
p1627
sI1627
V\u54c9
p1628
sI1628
V\u75b2
p1629
sI1629
V\u60d1
p1630
sI1630
V\u6c57
p1631
sI1631
V\u8870
p1632
sI1632
V\u5269
p1633
sI1633
V\u6606
p1634
sI1634
V\u8010
p1635
sI1635
V\u75ab
p1636
sI1636
V\u9738
p1637
sI1637
V\u8d5a
p1638
sI1638
V\u5f6d
p1639
sI1639
V\u72fc
p1640
sI1640
V\u6d2a
p1641
sI1641
V\u679a
p1642
sI1642
V\u5aaa
p1643
sI1643
V\u7eb2
p1644
sI1644
V\u7a97
p1645
sI1645
V\u5077
p1646
sI1646
V\u9f3b
p1647
sI1647
V\u6c60
p1648
sI1648
V\u78e8
p1649
sI1649
V\u5c18
p1650
sI1650
V\u8d26
p1651
sI1651
V\u62fc
p1652
sI1652
V\u699c
p1653
sI1653
V\u62e8
p1654
sI1654
V\u626b
p1655
sI1655
V\u5986
p1656
sI1656
V\u69fd
p1657
sI1657
V\u8521
p1658
sI1658
V\u624e
p1659
sI1659
V\u53d4
p1660
sI1660
V\u8f88
p1661
sI1661
V\u6ce1
p1662
sI1662
V\u4f2a
p1663
sI1663
V\u90bb
p1664
sI1664
V\u9521
p1665
sI1665
V\u4ef0
p1666
sI1666
V\u5bf8
p1667
sI1667
V\u76d0
p1668
sI1668
V\u53f9
p1669
sI1669
V\u56ca
p1670
sI1670
V\u5e7c
p1671
sI1671
V\u62d3
p1672
sI1672
V\u90c1
p1673
sI1673
V\u684c
p1674
sI1674
V\u821f
p1675
sI1675
V\u4e18
p1676
sI1676
V\u68cb
p1677
sI1677
V\u88c2
p1678
sI1678
V\u6276
p1679
sI1679
V\u903c
p1680
sI1680
V\u718a
p1681
sI1681
V\u8f70
p1682
sI1682
V\u5141
p1683
sI1683
V\u7bb1
p1684
sI1684
V\u633a
p1685
sI1685
V\u8d64
p1686
sI1686
V\u6676
p1687
sI1687
V\u796d
p1688
sI1688
V\u5bc4
p1689
sI1689
V\u7237
p1690
sI1690
V\u5446
p1691
sI1691
V\u80f6
p1692
sI1692
V\u4f69
p1693
sI1693
V\u6cea
p1694
sI1694
V\u6c83
p1695
sI1695
V\u5a74
p1696
sI1696
V\u5a31
p1697
sI1697
V\u970d
p1698
sI1698
V\u80be
p1699
sI1699
V\u8bf1
p1700
sI1700
V\u6241
p1701
sI1701
V\u8fa9
p1702
sI1702
V\u7c97
p1703
sI1703
V\u5915
p1704
sI1704
V\u707e
p1705
sI1705
V\u54f2
p1706
sI1706
V\u6d82
p1707
sI1707
V\u8270
p1708
sI1708
V\u732a
p1709
sI1709
V\u94dc
p1710
sI1710
V\u8e0f
p1711
sI1711
V\u8d6b
p1712
sI1712
V\u5439
p1713
sI1713
V\u5c48
p1714
sI1714
V\u8c10
p1715
sI1715
V\u4ed4
p1716
sI1716
V\u6caa
p1717
sI1717
V\u6bb7
p1718
sI1718
V\u8f84
p1719
sI1719
V\u6e21
p1720
sI1720
V\u5c4f
p1721
sI1721
V\u60a6
p1722
sI1722
V\u6f02
p1723
sI1723
V\u7978
p1724
sI1724
V\u8d54
p1725
sI1725
V\u6d9b
p1726
sI1726
V\u8c28
p1727
sI1727
V\u8d50
p1728
sI1728
V\u529d
p1729
sI1729
V\u6ccc
p1730
sI1730
V\u51e4
p1731
sI1731
V\u5e99
p1732
sI1732
V\u58a8
p1733
sI1733
V\u5bfa
p1734
sI1734
V\u6dd8
p1735
sI1735
V\u52c3
p1736
sI1736
V\u5d07
p1737
sI1737
V\u7070
p1738
sI1738
V\u866b
p1739
sI1739
V\u9006
p1740
sI1740
V\u95ea
p1741
sI1741
V\u7af9
p1742
sI1742
V\u75bc
p1743
sI1743
V\u65e8
p1744
sI1744
V\u65cb
p1745
sI1745
V\u8482
p1746
sI1746
V\u60ac
p1747
sI1747
V\u7d2b
p1748
sI1748
V\u6155
p1749
sI1749
V\u8d2a
p1750
sI1750
V\u6167
p1751
sI1751
V\u817f
p1752
sI1752
V\u8d4c
p1753
sI1753
V\u6349
p1754
sI1754
V\u758f
p1755
sI1755
V\u535c
p1756
sI1756
V\u6f20
p1757
sI1757
V\u582a
p1758
sI1758
V\u5ef7
p1759
sI1759
V\u6c27
p1760
sI1760
V\u7262
p1761
sI1761
V\u540f
p1762
sI1762
V\u5e15
p1763
sI1763
V\u68d2
p1764
sI1764
V\u7ebd
p1765
sI1765
V\u8352
p1766
sI1766
V\u5c61
p1767
sI1767
V\u6208
p1768
sI1768
V\u6c1b
p1769
sI1769
V\u9ece
p1770
sI1770
V\u6843
p1771
sI1771
V\u5e7d
p1772
sI1772
V\u5c16
p1773
sI1773
V\u732b
p1774
sI1774
V\u6355
p1775
sI1775
V\u5ac1
p1776
sI1776
V\u7a83
p1777
sI1777
V\u71c3
p1778
sI1778
V\u79bd
p1779
sI1779
V\u7a3f
p1780
sI1780
V\u63a9
p1781
sI1781
V\u8e2a
p1782
sI1782
V\u59fb
p1783
sI1783
V\u966a
p1784
sI1784
V\u51c9
p1785
sI1785
V\u9614
p1786
sI1786
V\u78b0
p1787
sI1787
V\u5e7b
p1788
sI1788
V\u8fc8
p1789
sI1789
V\u94fa
p1790
sI1790
V\u5806
p1791
sI1791
V\u67d4
p1792
sI1792
V\u59ff
p1793
sI1793
V\u819c
p1794
sI1794
V\u7238
p1795
sI1795
V\u65a4
p1796
sI1796
V\u8f68
p1797
sI1797
V\u7586
p1798
sI1798
V\u4e22
p1799
sI1799
V\u4ed3
p1800
sI1800
V\u5c82
p1801
sI1801
V\u67f3
p1802
sI1802
V\u6566
p1803
sI1803
V\u7965
p1804
sI1804
V\u680f
p1805
sI1805
V\u90aa
p1806
sI1806
V\u9b42
p1807
sI1807
V\u7bad
p1808
sI1808
V\u7164
p1809
sI1809
V\u60e8
p1810
sI1810
V\u806a
p1811
sI1811
V\u8273
p1812
sI1812
V\u5112
p1813
sI1813
V\u4ec7
p1814
sI1814
V\u5fbd
p1815
sI1815
V\u538c
p1816
sI1816
V\u6f58
p1817
sI1817
V\u8896
p1818
sI1818
V\u5b85
p1819
sI1819
V\u6052
p1820
sI1820
V\u903b
p1821
sI1821
V\u80ba
p1822
sI1822
V\u6602
p1823
sI1823
V\u7092
p1824
sI1824
V\u9189
p1825
sI1825
V\u6398
p1826
sI1826
V\u5baa
p1827
sI1827
V\u6478
p1828
sI1828
V\u6124
p1829
sI1829
V\u7545
p1830
sI1830
V\u6c6a
p1831
sI1831
V\u8d3a
p1832
sI1832
V\u80aa
p1833
sI1833
V\u6491
p1834
sI1834
V\u6842
p1835
sI1835
V\u8000
p1836
sI1836
V\u67cf
p1837
sI1837
V\u97c2
p1838
sI1838
V\u6251
p1839
sI1839
V\u6dee
p1840
sI1840
V\u51cc
p1841
sI1841
V\u9075
p1842
sI1842
V\u94bb
p1843
sI1843
V\u6458
p1844
sI1844
V\u788e
p1845
sI1845
V\u629b
p1846
sI1846
V\u5339
p1847
sI1847
V\u8154
p1848
sI1848
V\u7ea0
p1849
sI1849
V\u5410
p1850
sI1850
V\u6eda
p1851
sI1851
V\u51dd
p1852
sI1852
V\u63d2
p1853
sI1853
V\u9e70
p1854
sI1854
V\u90ca
p1855
sI1855
V\u7434
p1856
sI1856
V\u6084
p1857
sI1857
V\u64a4
p1858
sI1858
V\u9a76
p1859
sI1859
V\u7cae
p1860
sI1860
V\u8fb1
p1861
sI1861
V\u65a9
p1862
sI1862
V\u6696
p1863
sI1863
V\u676d
p1864
sI1864
V\u9f7f
p1865
sI1865
V\u6b3a
p1866
sI1866
V\u6b96
p1867
sI1867
V\u649e
p1868
sI1868
V\u9881
p1869
sI1869
V\u5308
p1870
sI1870
V\u7fd4
p1871
sI1871
V\u6324
p1872
sI1872
V\u4e54
p1873
sI1873
V\u629a
p1874
sI1874
V\u6ce5
p1875
sI1875
V\u9971
p1876
sI1876
V\u52a3
p1877
sI1877
V\u978b
p1878
sI1878
V\u80a9
p1879
sI1879
V\u96c7
p1880
sI1880
V\u9a70
p1881
sI1881
V\u83b2
p1882
sI1882
V\u5ca9
p1883
sI1883
V\u9177
p1884
sI1884
V\u739b
p1885
sI1885
V\u8d60
p1886
sI1886
V\u658b
p1887
sI1887
V\u8fa8
p1888
sI1888
V\u6cc4
p1889
sI1889
V\u59ec
p1890
sI1890
V\u62d6
p1891
sI1891
V\u6e7f
p1892
sI1892
V\u6ee8
p1893
sI1893
V\u9e4f
p1894
sI1894
V\u517d
p1895
sI1895
V\u9510
p1896
sI1896
V\u6367
p1897
sI1897
V\u5c38
p1898
sI1898
V\u5bb0
p1899
sI1899
V\u8206
p1900
sI1900
V\u5ba0
p1901
sI1901
V\u80ce
p1902
sI1902
V\u51f6
p1903
sI1903
V\u5272
p1904
sI1904
V\u8679
p1905
sI1905
V\u4fca
p1906
sI1906
V\u7cca
p1907
sI1907
V\u5179
p1908
sI1908
V\u74dc
p1909
sI1909
V\u6094
p1910
sI1910
V\u6170
p1911
sI1911
V\u6d66
p1912
sI1912
V\u953b
p1913
sI1913
V\u524a
p1914
sI1914
V\u5524
p1915
sI1915
V\u621a
p1916
sI1916
V\u6492
p1917
sI1917
V\u51af
p1918
sI1918
V\u4e11
p1919
sI1919
V\u4ead
p1920
sI1920
V\u5bdd
p1921
sI1921
V\u5acc
p1922
sI1922
V\u8881
p1923
sI1923
V\u5c09
p1924
sI1924
V\u82ac
p1925
sI1925
V\u6316
p1926
sI1926
V\u5f25
p1927
sI1927
V\u558a
p1928
sI1928
V\u7ea4
p1929
sI1929
V\u8f9f
p1930
sI1930
V\u83e9
p1931
sI1931
V\u57cb
p1932
sI1932
V\u5440
p1933
sI1933
V\u660f
p1934
sI1934
V\u5085
p1935
sI1935
V\u6851
p1936
sI1936
V\u7a00
p1937
sI1937
V\u5e10
p1938
sI1938
V\u6dfb
p1939
sI1939
V\u5851
p1940
sI1940
V\u8d4b
p1941
sI1941
V\u626e
p1942
sI1942
V\u82af
p1943
sI1943
V\u55b7
p1944
sI1944
V\u5938
p1945
sI1945
V\u62ac
p1946
sI1946
V\u65fa
p1947
sI1947
V\u8944
p1948
sI1948
V\u5cad
p1949
sI1949
V\u9897
p1950
sI1950
V\u67f1
p1951
sI1951
V\u6b20
p1952
sI1952
V\u9022
p1953
sI1953
V\u9f0e
p1954
sI1954
V\u82d7
p1955
sI1955
V\u5eb8
p1956
sI1956
V\u751c
p1957
sI1957
V\u8d3c
p1958
sI1958
V\u70c2
p1959
sI1959
V\u601c
p1960
sI1960
V\u76f2
p1961
sI1961
V\u6d45
p1962
sI1962
V\u971e
p1963
sI1963
V\u754f
p1964
sI1964
V\u8bdb
p1965
sI1965
V\u5021
p1966
sI1966
V\u78c1
p1967
sI1967
V\u8328
p1968
sI1968
V\u6bc5
p1969
sI1969
V\u9c8d
p1970
sI1970
V\u9a87
p1971
sI1971
V\u5ce1
p1972
sI1972
V\u59a8
p1973
sI1973
V\u96d5
p1974
sI1974
V\u888b
p1975
sI1975
V\u88d5
p1976
sI1976
V\u54e9
p1977
sI1977
V\u6016
p1978
sI1978
V\u9601
p1979
sI1979
V\u51fd
p1980
sI1980
V\u6d69
p1981
sI1981
V\u4f8d
p1982
sI1982
V\u62f3
p1983
sI1983
V\u5be1
p1984
sI1984
V\u9e3f
p1985
sI1985
V\u7709
p1986
sI1986
V\u7a46
p1987
sI1987
V\u72f1
p1988
sI1988
V\u7267
p1989
sI1989
V\u62e6
p1990
sI1990
V\u96fe
p1991
sI1991
V\u731c
p1992
sI1992
V\u9877
p1993
sI1993
V\u6614
p1994
sI1994
V\u6148
p1995
sI1995
V\u6734
p1996
sI1996
V\u75af
p1997
sI1997
V\u82cd
p1998
sI1998
V\u6e34
p1999
sI1999
V\u614c
p2000
sI2000
V\u7ef3
p2001
sI2001
V\u95f7
p2002
sI2002
V\u9655
p2003
sI2003
V\u5bb4
p2004
sI2004
V\u8f96
p2005
sI2005
V\u821c
p2006
sI2006
V\u8bbc
p2007
sI2007
V\u67ef
p2008
sI2008
V\u4e1e
p2009
sI2009
V\u59da
p2010
sI2010
V\u5d29
p2011
sI2011
V\u7ed8
p2012
sI2012
V\u679d
p2013
sI2013
V\u7272
p2014
sI2014
V\u6d8c
p2015
sI2015
V\u8654
p2016
sI2016
V\u59dc
p2017
sI2017
V\u64e6
p2018
sI2018
V\u6853
p2019
sI2019
V\u900a
p2020
sI2020
V\u6c70
p2021
sI2021
V\u65a5
p2022
sI2022
V\u9896
p2023
sI2023
V\u60a0
p2024
sI2024
V\u607c
p2025
sI2025
V\u704c
p2026
sI2026
V\u68af
p2027
sI2027
V\u6350
p2028
sI2028
V\u6323
p2029
sI2029
V\u8877
p2030
sI2030
V\u5561
p2031
sI2031
V\u5a1c
p2032
sI2032
V\u65ec
p2033
sI2033
V\u5475
p2034
sI2034
V\u5237
p2035
sI2035
V\u5e3d
p2036
sI2036
V\u5cb3
p2037
sI2037
V\u8c6b
p2038
sI2038
V\u5496
p2039
sI2039
V\u98d8
p2040
sI2040
V\u81c2
p2041
sI2041
V\u5bc2
p2042
sI2042
V\u7c92
p2043
sI2043
V\u52df
p2044
sI2044
V\u5631
p2045
sI2045
V\u852c
p2046
sI2046
V\u82f9
p2047
sI2047
V\u6ce3
p2048
sI2048
V\u540a
p2049
sI2049
V\u6df3
p2050
sI2050
V\u8bde
p2051
sI2051
V\u8bc8
p2052
sI2052
V\u54b8
p2053
sI2053
V\u7334
p2054
sI2054
V\u5978
p2055
sI2055
V\u6deb
p2056
sI2056
V\u4f50
p2057
sI2057
V\u6670
p2058
sI2058
V\u5d14
p2059
sI2059
V\u96cd
p2060
sI2060
V\u845b
p2061
sI2061
V\u9f20
p2062
sI2062
V\u7235
p2063
sI2063
V\u5962
p2064
sI2064
V\u4ed7
p2065
sI2065
V\u6db5
p2066
sI2066
V\u6dcb
p2067
sI2067
V\u633d
p2068
sI2068
V\u6572
p2069
sI2069
V\u6c9b
p2070
sI2070
V\u86c7
p2071
sI2071
V\u9505
p2072
sI2072
V\u5e9e
p2073
sI2073
V\u6735
p2074
sI2074
V\u62bc
p2075
sI2075
V\u9e7f
p2076
sI2076
V\u6ee9
p2077
sI2077
V\u7960
p2078
sI2078
V\u6795
p2079
sI2079
V\u626d
p2080
sI2080
V\u5398
p2081
sI2081
V\u9b45
p2082
sI2082
V\u6e58
p2083
sI2083
V\u67f4
p2084
sI2084
V\u7089
p2085
sI2085
V\u8346
p2086
sI2086
V\u5353
p2087
sI2087
V\u7897
p2088
sI2088
V\u5939
p2089
sI2089
V\u8106
p2090
sI2090
V\u98a0
p2091
sI2091
V\u7aa5
p2092
sI2092
V\u903e
p2093
sI2093
V\u8bd8
p2094
sI2094
V\u8d3f
p2095
sI2095
V\u865e
p2096
sI2096
V\u832b
p2097
sI2097
V\u69bb
p2098
sI2098
V\u7891
p2099
sI2099
V\u50b2
p2100
sI2100
V\u9a84
p2101
sI2101
V\u5351
p2102
sI2102
V\u84c4
p2103
sI2103
V\u716e
p2104
sI2104
V\u52ab
p2105
sI2105
V\u5375
p2106
sI2106
V\u78b3
p2107
sI2107
V\u75d5
p2108
sI2108
V\u6500
p2109
sI2109
V\u642c
p2110
sI2110
V\u62c6
p2111
sI2111
V\u8c0a
p2112
sI2112
V\u79b9
p2113
sI2113
V\u7aa6
p2114
sI2114
V\u7ee3
p2115
sI2115
V\u53c9
p2116
sI2116
V\u723d
p2117
sI2117
V\u8086
p2118
sI2118
V\u7f9e
p2119
sI2119
V\u722c
p2120
sI2120
V\u6cca
p2121
sI2121
V\u814a
p2122
sI2122
V\u611a
p2123
sI2123
V\u727a
p2124
sI2124
V\u80d6
p2125
sI2125
V\u5f18
p2126
sI2126
V\u79e9
p2127
sI2127
V\u5a36
p2128
sI2128
V\u5983
p2129
sI2129
V\u67dc
p2130
sI2130
V\u89fd
p2131
sI2131
V\u8eb2
p2132
sI2132
V\u8461
p2133
sI2133
V\u6d74
p2134
sI2134
V\u5146
p2135
sI2135
V\u6ef4
p2136
sI2136
V\u8854
p2137
sI2137
V\u71e5
p2138
sI2138
V\u6591
p2139
sI2139
V\u6321
p2140
sI2140
V\u7b3c
p2141
sI2141
V\u5f99
p2142
sI2142
V\u61be
p2143
sI2143
V\u5784
p2144
sI2144
V\u8096
p2145
sI2145
V\u6eaa
p2146
sI2146
V\u53d9
p2147
sI2147
V\u8305
p2148
sI2148
V\u818f
p2149
sI2149
V\u752b
p2150
sI2150
V\u7f34
p2151
sI2151
V\u59ca
p2152
sI2152
V\u9038
p2153
sI2153
V\u6dc0
p2154
sI2154
V\u64c5
p2155
sI2155
V\u50ac
p2156
sI2156
V\u4e1b
p2157
sI2157
V\u820c
p2158
sI2158
V\u7aed
p2159
sI2159
V\u7985
p2160
sI2160
V\u96b6
p2161
sI2161
V\u6b67
p2162
sI2162
V\u59a5
p2163
sI2163
V\u714c
p2164
sI2164
V\u73bb
p2165
sI2165
V\u5203
p2166
sI2166
V\u809a
p2167
sI2167
V\u60e9
p2168
sI2168
V\u8d42
p2169
sI2169
V\u803b
p2170
sI2170
V\u8a79
p2171
sI2171
V\u7483
p2172
sI2172
V\u8231
p2173
sI2173
V\u6e83
p2174
sI2174
V\u659c
p2175
sI2175
V\u7940
p2176
sI2176
V\u7ff0
p2177
sI2177
V\u6c41
p2178
sI2178
V\u5984
p2179
sI2179
V\u67ad
p2180
sI2180
V\u8404
p2181
sI2181
V\u5951
p2182
sI2182
V\u9aa4
p2183
sI2183
V\u9187
p2184
sI2184
V\u6cfc
p2185
sI2185
V\u54bd
p2186
sI2186
V\u62fe
p2187
sI2187
V\u5eca
p2188
sI2188
V\u72ac
p2189
sI2189
V\u7b4b
p2190
sI2190
V\u626f
p2191
sI2191
V\u72e0
p2192
sI2192
V\u632b
p2193
sI2193
V\u949b
p2194
sI2194
V\u6247
p2195
sI2195
V\u84ec
p2196
sI2196
V\u541e
p2197
sI2197
V\u5e06
p2198
sI2198
V\u620e
p2199
sI2199
V\u7a3d
p2200
sI2200
V\u5a03
p2201
sI2201
V\u871c
p2202
sI2202
V\u5e90
p2203
sI2203
V\u76c6
p2204
sI2204
V\u80c0
p2205
sI2205
V\u4e5e
p2206
sI2206
V\u5815
p2207
sI2207
V\u8d81
p2208
sI2208
V\u5413
p2209
sI2209
V\u6846
p2210
sI2210
V\u987d
p2211
sI2211
V\u7845
p2212
sI2212
V\u5b9b
p2213
sI2213
V\u7626
p2214
sI2214
V\u5265
p2215
sI2215
V\u7779
p2216
sI2216
V\u70db
p2217
sI2217
V\u664f
p2218
sI2218
V\u5dfe
p2219
sI2219
V\u72ee
p2220
sI2220
V\u8fb0
p2221
sI2221
V\u8302
p2222
sI2222
V\u88d9
p2223
sI2223
V\u5306
p2224
sI2224
V\u9709
p2225
sI2225
V\u6756
p2226
sI2226
V\u6746
p2227
sI2227
V\u7cdf
p2228
sI2228
V\u755c
p2229
sI2229
V\u8e81
p2230
sI2230
V\u6101
p2231
sI2231
V\u7f20
p2232
sI2232
V\u7cd5
p2233
sI2233
V\u5cfb
p2234
sI2234
V\u8d31
p2235
sI2235
V\u8fa3
p2236
sI2236
V\u6b7c
p2237
sI2237
V\u6168
p2238
sI2238
V\u4ea8
p2239
sI2239
V\u829d
p2240
sI2240
V\u60d5
p2241
sI2241
V\u5a07
p2242
sI2242
V\u6e14
p2243
sI2243
V\u51a5
p2244
sI2244
V\u54b1
p2245
sI2245
V\u6816
p2246
sI2246
V\u6d51
p2247
sI2247
V\u7984
p2248
sI2248
V\u5e16
p2249
sI2249
V\u5deb
p2250
sI2250
V\u55bb
p2251
sI2251
V\u6bcb
p2252
sI2252
V\u6cf3
p2253
sI2253
V\u997f
p2254
sI2254
V\u5c39
p2255
sI2255
V\u7a74
p2256
sI2256
V\u6cab
p2257
sI2257
V\u4e32
p2258
sI2258
V\u90b9
p2259
sI2259
V\u5395
p2260
sI2260
V\u84b8
p2261
sI2261
V\u6ede
p2262
sI2262
V\u94c3
p2263
sI2263
V\u5bd3
p2264
sI2264
V\u8427
p2265
sI2265
V\u5f2f
p2266
sI2266
V\u7a9d
p2267
sI2267
V\u674f
p2268
sI2268
V\u51bb
p2269
sI2269
V\u6109
p2270
sI2270
V\u901d
p2271
sI2271
V\u8be3
p2272
sI2272
V\u6ea2
p2273
sI2273
V\u561b
p2274
sI2274
V\u516e
p2275
sI2275
V\u66ae
p2276
sI2276
V\u8c79
p2277
sI2277
V\u9a9a
p2278
sI2278
V\u8dea
p2279
sI2279
V\u61d2
p2280
sI2280
V\u7f1d
p2281
sI2281
V\u76d2
p2282
sI2282
V\u4ea9
p2283
sI2283
V\u5bc7
p2284
sI2284
V\u5f0a
p2285
sI2285
V\u5de2
p2286
sI2286
V\u54ac
p2287
sI2287
V\u7cb9
p2288
sI2288
V\u51a4
p2289
sI2289
V\u964c
p2290
sI2290
V\u6d95
p2291
sI2291
V\u7fe0
p2292
sI2292
V\u52fe
p2293
sI2293
V\u62d8
p2294
sI2294
V\u4fa8
p2295
sI2295
V\u80a2
p2296
sI2296
V\u88f8
p2297
sI2297
V\u606d
p2298
sI2298
V\u53db
p2299
sI2299
V\u7eb9
p2300
sI2300
V\u644a
p2301
sI2301
V\u5151
p2302
sI2302
V\u841d
p2303
sI2303
V\u9965
p2304
sI2304
V\u6d78
p2305
sI2305
V\u53df
p2306
sI2306
V\u6ee5
p2307
sI2307
V\u707f
p2308
sI2308
V\u884d
p2309
sI2309
V\u5598
p2310
sI2310
V\u5401
p2311
sI2311
V\u6652
p2312
sI2312
V\u8c31
p2313
sI2313
V\u5835
p2314
sI2314
V\u6691
p2315
sI2315
V\u64b0
p2316
sI2316
V\u68c9
p2317
sI2317
V\u853d
p2318
sI2318
V\u5c60
p2319
sI2319
V\u8bb3
p2320
sI2320
V\u5eb6
p2321
sI2321
V\u5de9
p2322
sI2322
V\u94a9
p2323
sI2323
V\u4e38
p2324
sI2324
V\u8bcf
p2325
sI2325
V\u6714
p2326
sI2326
V\u77ac
p2327
sI2327
V\u62b9
p2328
sI2328
V\u77e2
p2329
sI2329
V\u6d46
p2330
sI2330
V\u8700
p2331
sI2331
V\u6d12
p2332
sI2332
V\u8015
p2333
sI2333
V\u864f
p2334
sI2334
V\u8bf5
p2335
sI2335
V\u965b
p2336
sI2336
V\u7ef5
p2337
sI2337
V\u5c34
p2338
sI2338
V\u5764
p2339
sI2339
V\u5c2c
p2340
sI2340
V\u640f
p2341
sI2341
V\u9499
p2342
sI2342
V\u997c
p2343
sI2343
V\u67af
p2344
sI2344
V\u707c
p2345
sI2345
V\u9976
p2346
sI2346
V\u6749
p2347
sI2347
V\u76fc
p2348
sI2348
V\u84b2
p2349
sI2349
V\u5c27
p2350
sI2350
V\u4fd8
p2351
sI2351
V\u4f1e
p2352
sI2352
V\u5e9a
p2353
sI2353
V\u6467
p2354
sI2354
V\u906e
p2355
sI2355
V\u75f4
p2356
sI2356
V\u7f55
p2357
sI2357
V\u6876
p2358
sI2358
V\u5df7
p2359
sI2359
V\u4e56
p2360
sI2360
V\u5566
p2361
sI2361
V\u7eba
p2362
sI2362
V\u95ef
p2363
sI2363
V\u655b
p2364
sI2364
V\u5f13
p2365
sI2365
V\u5589
p2366
sI2366
V\u917f
p2367
sI2367
V\u5f6a
p2368
sI2368
V\u5783
p2369
sI2369
V\u6b47
p2370
sI2370
V\u573e
p2371
sI2371
V\u5026
p2372
sI2372
V\u72ed
p2373
sI2373
V\u6655
p2374
sI2374
V\u88e4
p2375
sI2375
V\u8702
p2376
sI2376
V\u57a3
p2377
sI2377
V\u8389
p2378
sI2378
V\u8c0d
p2379
sI2379
V\u4fe9
p2380
sI2380
V\u59aa
p2381
sI2381
V\u9493
p2382
sI2382
V\u901b
p2383
sI2383
V\u6905
p2384
sI2384
V\u7816
p2385
sI2385
V\u70e4
p2386
sI2386
V\u71ac
p2387
sI2387
V\u60bc
p2388
sI2388
V\u5018
p2389
sI2389
V\u9e2d
p2390
sI2390
V\u9988
p2391
sI2391
V\u60f9
p2392
sI2392
V\u65ed
p2393
sI2393
V\u859b
p2394
sI2394
V\u8bc0
p2395
sI2395
V\u6e17
p2396
sI2396
V\u75d2
p2397
sI2397
V\u86ee
p2398
sI2398
V\u7f69
p2399
sI2399
V\u6e0a
p2400
sI2400
V\u8e22
p2401
sI2401
V\u5d16
p2402
sI2402
V\u7c9f
p2403
sI2403
V\u5507
p2404
sI2404
V\u8f90
p2405
sI2405
V\u6127
p2406
sI2406
V\u73b2
p2407
sI2407
V\u904f
p2408
sI2408
V\u663c
p2409
sI2409
V\u82a6
p2410
sI2410
V\u7ea3
p2411
sI2411
V\u743c
p2412
sI2412
V\u690e
p2413
sI2413
V\u54b3
p2414
sI2414
V\u7199
p2415
sI2415
V\u9489
p2416
sI2416
V\u5256
p2417
sI2417
V\u6b49
p2418
sI2418
V\u5760
p2419
sI2419
V\u8a93
p2420
sI2420
V\u5564
p2421
sI2421
V\u78a7
p2422
sI2422
V\u90c5
p2423
sI2423
V\u543b
p2424
sI2424
V\u838e
p2425
sI2425
V\u5c6f
p2426
sI2426
V\u541f
p2427
sI2427
V\u81ed
p2428
sI2428
V\u8c26
p2429
sI2429
V\u522e
p2430
sI2430
V\u63a0
p2431
sI2431
V\u57ab
p2432
sI2432
V\u5b99
p2433
sI2433
V\u5180
p2434
sI2434
V\u6817
p2435
sI2435
V\u58f3
p2436
sI2436
V\u5d1b
p2437
sI2437
V\u745f
p2438
sI2438
V\u54c4
p2439
sI2439
V\u8c0f
p2440
sI2440
V\u4e19
p2441
sI2441
V\u53e9
p2442
sI2442
V\u7f2a
p2443
sI2443
V\u96cc
p2444
sI2444
V\u53e0
p2445
sI2445
V\u5960
p2446
sI2446
V\u9ac3
p2447
sI2447
V\u7898
p2448
sI2448
V\u66a8
p2449
sI2449
V\u52ad
p2450
sI2450
V\u971c
p2451
sI2451
V\u5993
p2452
sI2452
V\u53a8
p2453
sI2453
V\u813e
p2454
sI2454
V\u4fef
p2455
sI2455
V\u69db
p2456
sI2456
V\u8292
p2457
sI2457
V\u6cb8
p2458
sI2458
V\u76ef
p2459
sI2459
V\u574a
p2460
sI2460
V\u5492
p2461
sI2461
V\u89c5
p2462
sI2462
V\u526a
p2463
sI2463
V\u907d
p2464
sI2464
V\u8d29
p2465
sI2465
V\u5be8
p2466
sI2466
V\u94f8
p2467
sI2467
V\u70ad
p2468
sI2468
V\u7ed1
p2469
sI2469
V\u8e48
p2470
sI2470
V\u6284
p2471
sI2471
V\u960e
p2472
sI2472
V\u7a84
p2473
sI2473
V\u5188
p2474
sI2474
V\u4f88
p2475
sI2475
V\u533f
p2476
sI2476
V\u658c
p2477
sI2477
V\u6cbe
p2478
sI2478
V\u58e4
p2479
sI2479
V\u54e8
p2480
sI2480
V\u50f5
p2481
sI2481
V\u574e
p2482
sI2482
V\u8205
p2483
sI2483
V\u6d3d
p2484
sI2484
V\u52c9
p2485
sI2485
V\u4fa3
p2486
sI2486
V\u5c7f
p2487
sI2487
V\u557c
p2488
sI2488
V\u4fa0
p2489
sI2489
V\u67a2
p2490
sI2490
V\u819d
p2491
sI2491
V\u8c12
p2492
sI2492
V\u780d
p2493
sI2493
V\u53a2
p2494
sI2494
V\u6627
p2495
sI2495
V\u5ac2
p2496
sI2496
V\u7fa1
p2497
sI2497
V\u94ed
p2498
sI2498
V\u78b1
p2499
sI2499
V\u68fa
p2500
sI2500
V\u6f06
p2501
sI2501
V\u7750
p2502
sI2502
V\u7f1a
p2503
sI2503
V\u8c2d
p2504
sI2504
V\u6eb6
p2505
sI2505
V\u70f9
p2506
sI2506
V\u96c0
p2507
sI2507
V\u64ce
p2508
sI2508
V\u68cd
p2509
sI2509
V\u7784
p2510
sI2510
V\u88f9
p2511
sI2511
V\u66dd
p2512
sI2512
V\u50bb
p2513
sI2513
V\u65f1
p2514
sI2514
V\u5751
p2515
sI2515
V\u9a74
p2516
sI2516
V\u5f26
p2517
sI2517
V\u8d2c
p2518
sI2518
V\u9f9f
p2519
sI2519
V\u5858
p2520
sI2520
V\u8d1e
p2521
sI2521
V\u6c28
p2522
sI2522
V\u76ce
p2523
sI2523
V\u63b7
p2524
sI2524
V\u80fa
p2525
sI2525
V\u711a
p2526
sI2526
V\u9ecf
p2527
sI2527
V\u4e52
p2528
sI2528
V\u800d
p2529
sI2529
V\u8bb6
p2530
sI2530
V\u7eb1
p2531
sI2531
V\u8822
p2532
sI2532
V\u6380
p2533
sI2533
V\u85e4
p2534
sI2534
V\u8574
p2535
sI2535
V\u90af
p2536
sI2536
V\u763e
p2537
sI2537
V\u5a7f
p2538
sI2538
V\u5378
p2539
sI2539
V\u65a7
p2540
sI2540
V\u9119
p2541
sI2541
V\u5195
p2542
sI2542
V\u82d1
p2543
sI2543
V\u803f
p2544
sI2544
V\u817b
p2545
sI2545
V\u8eba
p2546
sI2546
V\u77e9
p2547
sI2547
V\u8776
p2548
sI2548
V\u6d4f
p2549
sI2549
V\u58f6
p2550
sI2550
V\u51f8
p2551
sI2551
V\u81e7
p2552
sI2552
V\u5885
p2553
sI2553
V\u7c98
p2554
sI2554
V\u9b44
p2555
sI2555
V\u675e
p2556
sI2556
V\u7130
p2557
sI2557
V\u9776
p2558
sI2558
V\u90b5
p2559
sI2559
V\u501a
p2560
sI2560
V\u5e18
p2561
sI2561
V\u97ad
p2562
sI2562
V\u50da
p2563
sI2563
V\u9176
p2564
sI2564
V\u9761
p2565
sI2565
V\u8650
p2566
sI2566
V\u9610
p2567
sI2567
V\u97f5
p2568
sI2568
V\u8fc4
p2569
sI2569
V\u6a0a
p2570
sI2570
V\u7554
p2571
sI2571
V\u94af
p2572
sI2572
V\u83ca
p2573
sI2573
V\u4ea5
p2574
sI2574
V\u5d4c
p2575
sI2575
V\u72c4
p2576
sI2576
V\u62f1
p2577
sI2577
V\u4f3a
p2578
sI2578
V\u6f6d
p2579
sI2579
V\u7f06
p2580
sI2580
V\u6151
p2581
sI2581
V\u53ae
p2582
sI2582
V\u6643
p2583
sI2583
V\u5a9a
p2584
sI2584
V\u5435
p2585
sI2585
V\u9a83
p2586
sI2586
V\u7a37
p2587
sI2587
V\u6d85
p2588
sI2588
V\u962a
p2589
sI2589
V\u6328
p2590
sI2590
V\u73ca
p2591
sI2591
V\u6b86
p2592
sI2592
V\u749e
p2593
sI2593
V\u5a49
p2594
sI2594
V\u7fdf
p2595
sI2595
V\u680b
p2596
sI2596
V\u918b
p2597
sI2597
V\u9e64
p2598
sI2598
V\u6912
p2599
sI2599
V\u56da
p2600
sI2600
V\u7792
p2601
sI2601
V\u7ad6
p2602
sI2602
V\u80b4
p2603
sI2603
V\u4ed5
p2604
sI2604
V\u94a6
p2605
sI2605
V\u5992
p2606
sI2606
V\u6674
p2607
sI2607
V\u88d4
p2608
sI2608
V\u7b5b
p2609
sI2609
V\u6cfb
p2610
sI2610
V\u9619
p2611
sI2611
V\u5792
p2612
sI2612
V\u5b70
p2613
sI2613
V\u6296
p2614
sI2614
V\u886c
p2615
sI2615
V\u70ab
p2616
sI2616
V\u5162
p2617
sI2617
V\u5c51
p2618
sI2618
V\u8d66
p2619
sI2619
V\u5bb5
p2620
sI2620
V\u6cae
p2621
sI2621
V\u8c0e
p2622
sI2622
V\u82df
p2623
s.